target datalayout = "e-m:e-p270:32:32-p271:32:32-p272:64:64-i64:64-i128:128-f80:128-n8:16:32:64-S128"
target triple = "x86_64-pc-linux-gnu"

%struct.json_dumper = type { ptr, ptr, i32, i32, i32, i32, [1100 x i8] }
%struct._GList = type { ptr, ptr, ptr }
%struct._seq_analysis_info = type { ptr, i8, i32, ptr, ptr, [40 x %struct._address], [40 x i8], i32 }
%struct._address = type { i32, i32, ptr, ptr }
%struct._seq_analysis_item = type { i32, %struct._address, i16, %struct._address, i16, ptr, ptr, ptr, i16, i32, i32, i8, i8, i32, i32, i16, i32, ptr }

@dumper = internal global %struct.json_dumper zeroinitializer, align 8
@.str.20 = private unnamed_addr constant [4 x i8] c"tap\00", align 1
@.str.171 = private unnamed_addr constant [8 x i8] c"seqa:%s\00", align 1
@.str.186 = private unnamed_addr constant [2 x i8] c"t\00", align 1
@.str.187 = private unnamed_addr constant [2 x i8] c"n\00", align 1
@.str.195 = private unnamed_addr constant [2 x i8] c"c\00", align 1
@.str.244 = private unnamed_addr constant [5 x i8] c"type\00", align 1
@.str.264 = private unnamed_addr constant [5 x i8] c"flow\00", align 1
@.str.265 = private unnamed_addr constant [6 x i8] c"nodes\00", align 1
@.str.266 = private unnamed_addr constant [6 x i8] c"flows\00", align 1
@.str.267 = private unnamed_addr constant [8 x i8] c"[%u,%u]\00", align 1
@.str.268 = private unnamed_addr constant [3 x i8] c"pn\00", align 1

; Function Attrs: null_pointer_is_valid sspstrong uwtable
define internal void @sharkd_json_array_close() #0 {
  call void @json_dumper_end_array(ptr noundef @dumper)
  ret void
}

; Function Attrs: null_pointer_is_valid sspstrong uwtable
define internal void @sharkd_json_array_open(ptr noundef %0) #0 {
  %2 = alloca ptr, align 8
  store ptr %0, ptr %2, align 8
  %3 = load ptr, ptr %2, align 8
  %4 = icmp ne ptr %3, null
  br i1 %4, label %5, label %7

5:                                                ; preds = %1
  %6 = load ptr, ptr %2, align 8
  call void @json_dumper_set_member_name(ptr noundef @dumper, ptr noundef %6)
  br label %7

7:                                                ; preds = %5, %1
  call void @json_dumper_begin_array(ptr noundef @dumper)
  ret void
}

; Function Attrs: null_pointer_is_valid sspstrong uwtable
define internal void @sharkd_json_value_string(ptr noundef %0, ptr noundef %1) #0 {
  %3 = alloca ptr, align 8
  %4 = alloca ptr, align 8
  store ptr %0, ptr %3, align 8
  store ptr %1, ptr %4, align 8
  %5 = load ptr, ptr %3, align 8
  %6 = icmp ne ptr %5, null
  br i1 %6, label %7, label %9

7:                                                ; preds = %2
  %8 = load ptr, ptr %3, align 8
  call void @json_dumper_set_member_name(ptr noundef @dumper, ptr noundef %8)
  br label %9

9:                                                ; preds = %7, %2
  %10 = load ptr, ptr %4, align 8
  call void @json_dumper_value_string(ptr noundef @dumper, ptr noundef %10)
  ret void
}

; Function Attrs: null_pointer_is_valid sspstrong uwtable
define internal void @sharkd_session_process_tap_flow_cb(ptr noundef %0) #0 {
  %2 = alloca ptr, align 8
  %3 = alloca ptr, align 8
  %4 = alloca ptr, align 8
  %5 = alloca i32, align 4
  %6 = alloca ptr, align 8
  %7 = alloca ptr, align 8
  %8 = alloca i32, align 4
  store ptr %0, ptr %2, align 8
  call void @llvm.lifetime.start.p0(i64 8, ptr %3) #21
  %9 = load ptr, ptr %2, align 8
  store ptr %9, ptr %3, align 8
  call void @llvm.lifetime.start.p0(i64 8, ptr %4) #21
  call void @llvm.lifetime.start.p0(i64 4, ptr %5) #21
  %10 = load ptr, ptr %3, align 8
  %11 = call i32 @sequence_analysis_get_nodes(ptr noundef %10)
  call void @json_dumper_begin_object(ptr noundef @dumper)
  %12 = load ptr, ptr %3, align 8
  %13 = getelementptr inbounds nuw %struct._seq_analysis_info, ptr %12, i32 0, i32 0
  %14 = load ptr, ptr %13, align 8
  call void (ptr, ptr, ...) @sharkd_json_value_stringf(ptr noundef @.str.20, ptr noundef @.str.171, ptr noundef %14)
  call void @sharkd_json_value_string(ptr noundef @.str.244, ptr noundef @.str.264)
  call void @sharkd_json_array_open(ptr noundef @.str.265)
  store i32 0, ptr %5, align 4
  br label %15

15:                                               ; preds = %30, %1
  %16 = load i32, ptr %5, align 4
  %17 = load ptr, ptr %3, align 8
  %18 = getelementptr inbounds nuw %struct._seq_analysis_info, ptr %17, i32 0, i32 7
  %19 = load i32, ptr %18, align 8
  %20 = icmp ult i32 %16, %19
  br i1 %20, label %21, label %33

21:                                               ; preds = %15
  call void @llvm.lifetime.start.p0(i64 8, ptr %6) #21
  %22 = load ptr, ptr %3, align 8
  %23 = getelementptr inbounds nuw %struct._seq_analysis_info, ptr %22, i32 0, i32 5
  %24 = load i32, ptr %5, align 4
  %25 = zext i32 %24 to i64
  %26 = getelementptr [40 x %struct._address], ptr %23, i64 0, i64 %25
  %27 = call ptr @address_to_display(ptr noundef null, ptr noundef %26)
  store ptr %27, ptr %6, align 8
  %28 = load ptr, ptr %6, align 8
  call void @sharkd_json_value_string(ptr noundef null, ptr noundef %28)
  %29 = load ptr, ptr %6, align 8
  call void @wmem_free(ptr noundef null, ptr noundef %29)
  call void @llvm.lifetime.end.p0(i64 8, ptr %6) #21
  br label %30

30:                                               ; preds = %21
  %31 = load i32, ptr %5, align 4
  %32 = add i32 %31, 1
  store i32 %32, ptr %5, align 4
  br label %15, !llvm.loop !48

33:                                               ; preds = %15
  call void @sharkd_json_array_close()
  call void @sharkd_json_array_open(ptr noundef @.str.266)
  %34 = load ptr, ptr %3, align 8
  %35 = getelementptr inbounds nuw %struct._seq_analysis_info, ptr %34, i32 0, i32 3
  %36 = load ptr, ptr %35, align 8
  %37 = call ptr @g_queue_peek_nth_link(ptr noundef %36, i32 noundef 0)
  store ptr %37, ptr %4, align 8
  br label %38

38:                                               ; preds = %88, %86, %33
  %39 = load ptr, ptr %4, align 8
  %40 = icmp ne ptr %39, null
  br i1 %40, label %41, label %89

41:                                               ; preds = %38
  call void @llvm.lifetime.start.p0(i64 8, ptr %7) #21
  %42 = load ptr, ptr %4, align 8
  %43 = getelementptr inbounds nuw %struct._GList, ptr %42, i32 0, i32 0
  %44 = load ptr, ptr %43, align 8
  store ptr %44, ptr %7, align 8
  %45 = load ptr, ptr %4, align 8
  %46 = icmp ne ptr %45, null
  br i1 %46, label %47, label %51

47:                                               ; preds = %41
  %48 = load ptr, ptr %4, align 8
  %49 = getelementptr inbounds nuw %struct._GList, ptr %48, i32 0, i32 1
  %50 = load ptr, ptr %49, align 8
  br label %52

51:                                               ; preds = %41
  br label %52

52:                                               ; preds = %51, %47
  %53 = phi ptr [ %50, %47 ], [ null, %51 ]
  store ptr %53, ptr %4, align 8
  %54 = load ptr, ptr %7, align 8
  %55 = getelementptr inbounds nuw %struct._seq_analysis_item, ptr %54, i32 0, i32 12
  %56 = load i8, ptr %55, align 1, !range !11, !noundef !12
  %57 = trunc i8 %56 to i1
  br i1 %57, label %59, label %58

58:                                               ; preds = %52
  store i32 5, ptr %8, align 4
  br label %86, !llvm.loop !49

59:                                               ; preds = %52
  call void @json_dumper_begin_object(ptr noundef @dumper)
  %60 = load ptr, ptr %7, align 8
  %61 = getelementptr inbounds nuw %struct._seq_analysis_item, ptr %60, i32 0, i32 6
  %62 = load ptr, ptr %61, align 8
  call void @sharkd_json_value_string(ptr noundef @.str.186, ptr noundef %62)
  %63 = load ptr, ptr %7, align 8
  %64 = getelementptr inbounds nuw %struct._seq_analysis_item, ptr %63, i32 0, i32 13
  %65 = load i32, ptr %64, align 8
  %66 = load ptr, ptr %7, align 8
  %67 = getelementptr inbounds nuw %struct._seq_analysis_item, ptr %66, i32 0, i32 14
  %68 = load i32, ptr %67, align 4
  call void (ptr, ptr, ...) @sharkd_json_value_anyf(ptr noundef @.str.187, ptr noundef @.str.267, i32 noundef %65, i32 noundef %68)
  %69 = load ptr, ptr %7, align 8
  %70 = getelementptr inbounds nuw %struct._seq_analysis_item, ptr %69, i32 0, i32 2
  %71 = load i16, ptr %70, align 8
  %72 = zext i16 %71 to i32
  %73 = load ptr, ptr %7, align 8
  %74 = getelementptr inbounds nuw %struct._seq_analysis_item, ptr %73, i32 0, i32 4
  %75 = load i16, ptr %74, align 8
  %76 = zext i16 %75 to i32
  call void (ptr, ptr, ...) @sharkd_json_value_anyf(ptr noundef @.str.268, ptr noundef @.str.267, i32 noundef %72, i32 noundef %76)
  %77 = load ptr, ptr %7, align 8
  %78 = getelementptr inbounds nuw %struct._seq_analysis_item, ptr %77, i32 0, i32 7
  %79 = load ptr, ptr %78, align 8
  %80 = icmp ne ptr %79, null
  br i1 %80, label %81, label %85

81:                                               ; preds = %59
  %82 = load ptr, ptr %7, align 8
  %83 = getelementptr inbounds nuw %struct._seq_analysis_item, ptr %82, i32 0, i32 7
  %84 = load ptr, ptr %83, align 8
  call void @sharkd_json_value_string(ptr noundef @.str.195, ptr noundef %84)
  br label %85

85:                                               ; preds = %81, %59
  call void @json_dumper_end_object(ptr noundef @dumper)
  store i32 0, ptr %8, align 4
  br label %86

86:                                               ; preds = %85, %58
  call void @llvm.lifetime.end.p0(i64 8, ptr %7) #21
  %87 = load i32, ptr %8, align 4
  switch i32 %87, label %90 [
    i32 0, label %88
    i32 5, label %38
  ]

88:                                               ; preds = %86
  br label %38, !llvm.loop !49

89:                                               ; preds = %38
  call void @sharkd_json_array_close()
  call void @json_dumper_end_object(ptr noundef @dumper)
  call void @llvm.lifetime.end.p0(i64 4, ptr %5) #21
  call void @llvm.lifetime.end.p0(i64 8, ptr %4) #21
  call void @llvm.lifetime.end.p0(i64 8, ptr %3) #21
  ret void

90:                                               ; preds = %86
  unreachable
}