; Function Attrs: null_pointer_is_valid sspstrong uwtable
define internal void @sharkd_session_process_tap_flow_cb(ptr noundef %0) #0 {
  %2 = tail call i32 @sequence_analysis_get_nodes(ptr noundef %0)
  tail call void @json_dumper_begin_object(ptr noundef nonnull @dumper)
  %3 = load ptr, ptr %0, align 8
  tail call void (ptr, ptr, ...) @sharkd_json_value_stringf(ptr noundef nonnull @.str.20, ptr noundef nonnull @.str.171, ptr noundef %3)
  tail call void @json_dumper_set_member_name(ptr noundef nonnull @dumper, ptr noundef nonnull @.str.244)
  tail call void @json_dumper_value_string(ptr noundef nonnull @dumper, ptr noundef nonnull @.str.264)
  tail call void @json_dumper_set_member_name(ptr noundef nonnull @dumper, ptr noundef nonnull @.str.265)
  tail call void @json_dumper_begin_array(ptr noundef nonnull @dumper)
  %4 = getelementptr inbounds nuw i8, ptr %0, i64 1032
  %5 = load i32, ptr %4, align 8
  %.not31 = icmp eq i32 %5, 0
  br i1 %.not31, label %._crit_edge, label %.lr.ph

.lr.ph:                                           ; preds = %1
  %6 = getelementptr inbounds nuw i8, ptr %0, i64 32
  br label %7

7:                                                ; preds = %.lr.ph, %7
  %indvars.iv = phi i64 [ 0, %.lr.ph ], [ %indvars.iv.next, %7 ]
  %8 = getelementptr [40 x %struct._address], ptr %6, i64 0, i64 %indvars.iv
  %9 = tail call ptr @address_to_display(ptr noundef null, ptr noundef %8)
  tail call void @json_dumper_value_string(ptr noundef nonnull @dumper, ptr noundef %9)
  tail call void @wmem_free(ptr noundef null, ptr noundef %9)
  %indvars.iv.next = add nuw nsw i64 %indvars.iv, 1
  %10 = load i32, ptr %4, align 8
  %11 = zext i32 %10 to i64
  %12 = icmp samesign ult i64 %indvars.iv.next, %11
  br i1 %12, label %7, label %._crit_edge, !llvm.loop !49

._crit_edge:                                      ; preds = %7, %1
  tail call void @json_dumper_end_array(ptr noundef nonnull @dumper)
  tail call void @json_dumper_set_member_name(ptr noundef nonnull @dumper, ptr noundef nonnull @.str.266)
  tail call void @json_dumper_begin_array(ptr noundef nonnull @dumper)
  %13 = getelementptr inbounds nuw i8, ptr %0, i64 16
  %14 = load ptr, ptr %13, align 8
  %15 = tail call ptr @g_queue_peek_nth_link(ptr noundef %14, i32 noundef 0)
  %.not26 = icmp eq ptr %15, null
  br i1 %.not26, label %._crit_edge30, label %.lr.ph29

.lr.ph29:                                         ; preds = %._crit_edge, %39
  %.027 = phi ptr [ %18, %39 ], [ %15, %._crit_edge ]
  %16 = load ptr, ptr %.027, align 8
  %17 = getelementptr inbounds nuw i8, ptr %.027, i64 8
  %18 = load ptr, ptr %17, align 8
  %19 = getelementptr inbounds nuw i8, ptr %16, i64 109
  %20 = load i8, ptr %19, align 1, !range !15, !noundef !16
  %21 = trunc nuw i8 %20 to i1
  br i1 %21, label %22, label %39, !llvm.loop !50

22:                                               ; preds = %.lr.ph29
  tail call void @json_dumper_begin_object(ptr noundef nonnull @dumper)
  %23 = getelementptr inbounds nuw i8, ptr %16, i64 80
  %24 = load ptr, ptr %23, align 8
  tail call void @json_dumper_set_member_name(ptr noundef nonnull @dumper, ptr noundef nonnull @.str.186)
  tail call void @json_dumper_value_string(ptr noundef nonnull @dumper, ptr noundef %24)
  %25 = getelementptr inbounds nuw i8, ptr %16, i64 112
  %26 = load i32, ptr %25, align 8
  %27 = getelementptr inbounds nuw i8, ptr %16, i64 116
  %28 = load i32, ptr %27, align 4
  tail call void (ptr, ptr, ...) @sharkd_json_value_anyf(ptr noundef nonnull @.str.187, ptr noundef nonnull @.str.267, i32 noundef %26, i32 noundef %28)
  %29 = getelementptr inbounds nuw i8, ptr %16, i64 32
  %30 = load i16, ptr %29, align 8
  %31 = zext i16 %30 to i32
  %32 = getelementptr inbounds nuw i8, ptr %16, i64 64
  %33 = load i16, ptr %32, align 8
  %34 = zext i16 %33 to i32
  tail call void (ptr, ptr, ...) @sharkd_json_value_anyf(ptr noundef nonnull @.str.268, ptr noundef nonnull @.str.267, i32 noundef %31, i32 noundef %34)
  %35 = getelementptr inbounds nuw i8, ptr %16, i64 88
  %36 = load ptr, ptr %35, align 8
  %.not24 = icmp eq ptr %36, null
  br i1 %.not24, label %38, label %37

37:                                               ; preds = %22
  tail call void @json_dumper_set_member_name(ptr noundef nonnull @dumper, ptr noundef nonnull @.str.195)
  tail call void @json_dumper_value_string(ptr noundef nonnull @dumper, ptr noundef nonnull %36)
  br label %38

38:                                               ; preds = %37, %22
  tail call void @json_dumper_end_object(ptr noundef nonnull @dumper)
  br label %39

39:                                               ; preds = %.lr.ph29, %38
  %.not = icmp eq ptr %18, null
  br i1 %.not, label %._crit_edge30, label %.lr.ph29

._crit_edge30:                                    ; preds = %39, %._crit_edge
  tail call void @json_dumper_end_array(ptr noundef nonnull @dumper)
  tail call void @json_dumper_end_object(ptr noundef nonnull @dumper)
  ret void
}